; Function Attrs: nofree norecurse nosync nounwind memory(argmem: readwrite) uwtable
define hidden i64 @EVP_EncodeBlock(ptr noundef writeonly captures(none) %0, ptr noundef readonly captures(none) %1, i64 noundef %2) local_unnamed_addr #1 {
  %.not35 = icmp eq i64 %2, 0
  br i1 %.not35, label %._crit_edge, label %.lr.ph

.lr.ph:                                           ; preds = %3, %38
  %.040 = phi i64 [ %70, %38 ], [ 0, %3 ]
  %.03039 = phi i64 [ %69, %38 ], [ %2, %3 ]
  %.03238 = phi ptr [ %.133, %38 ], [ %0, %3 ]
  %.03436 = phi ptr [ %71, %38 ], [ %1, %3 ]
  %4 = icmp ugt i64 %.03039, 2
  %5 = load i8, ptr %.03436, align 1, !tbaa !14
  %6 = zext i8 %5 to i32
  %7 = shl nuw nsw i32 %6, 16
  br i1 %4, label %38, label %8

8:                                                ; preds = %.lr.ph
  %9 = icmp eq i64 %.03039, 2
  br i1 %9, label %10, label %16

10:                                               ; preds = %8
  %11 = getelementptr inbounds nuw i8, ptr %.03436, i64 1
  %12 = load i8, ptr %11, align 1, !tbaa !14
  %13 = zext i8 %12 to i32
  %14 = shl nuw nsw i32 %13, 8
  %15 = or disjoint i32 %14, %7
  br label %16

16:                                               ; preds = %10, %8
  %.031 = phi i32 [ %15, %10 ], [ %7, %8 ]
  %17 = lshr i32 %.031, 18
  %18 = zext nneg i32 %17 to i64
  %19 = getelementptr inbounds nuw [65 x i8], ptr @data_bin2ascii, i64 0, i64 %18
  %20 = load i8, ptr %19, align 1, !tbaa !14
  %21 = getelementptr inbounds nuw i8, ptr %.03238, i64 1
  store i8 %20, ptr %.03238, align 1, !tbaa !14
  %22 = lshr i32 %.031, 12
  %23 = and i32 %22, 63
  %24 = zext nneg i32 %23 to i64
  %25 = getelementptr inbounds nuw [65 x i8], ptr @data_bin2ascii, i64 0, i64 %24
  %26 = load i8, ptr %25, align 1, !tbaa !14
  %27 = getelementptr inbounds nuw i8, ptr %.03238, i64 2
  store i8 %26, ptr %21, align 1, !tbaa !14
  %28 = icmp eq i64 %.03039, 1
  br i1 %28, label %.thread, label %29

29:                                               ; preds = %16
  %30 = lshr i32 %.031, 6
  %31 = and i32 %30, 63
  %32 = zext nneg i32 %31 to i64
  %33 = getelementptr inbounds nuw [65 x i8], ptr @data_bin2ascii, i64 0, i64 %32
  %34 = load i8, ptr %33, align 1, !tbaa !14
  br label %.thread

.thread:                                          ; preds = %29, %16
  %35 = phi i8 [ %34, %29 ], [ 61, %16 ]
  %36 = getelementptr inbounds nuw i8, ptr %.03238, i64 3
  store i8 %35, ptr %27, align 1, !tbaa !14
  store i8 61, ptr %36, align 1, !tbaa !14
  %.13343 = getelementptr inbounds nuw i8, ptr %.03238, i64 4
  %37 = add i64 %.040, 4
  br label %._crit_edge

38:                                               ; preds = %.lr.ph
  %39 = getelementptr inbounds nuw i8, ptr %.03436, i64 1
  %40 = load i8, ptr %39, align 1, !tbaa !14
  %41 = zext i8 %40 to i32
  %42 = shl nuw nsw i32 %41, 8
  %43 = getelementptr inbounds nuw i8, ptr %.03436, i64 2
  %44 = load i8, ptr %43, align 1, !tbaa !14
  %45 = zext i8 %44 to i32
  %46 = or disjoint i32 %42, %45
  %47 = or disjoint i32 %42, %7
  %48 = lshr i32 %6, 2
  %49 = zext nneg i32 %48 to i64
  %50 = getelementptr inbounds nuw [65 x i8], ptr @data_bin2ascii, i64 0, i64 %49
  %51 = load i8, ptr %50, align 1, !tbaa !14
  %52 = getelementptr inbounds nuw i8, ptr %.03238, i64 1
  store i8 %51, ptr %.03238, align 1, !tbaa !14
  %53 = lshr i32 %47, 12
  %54 = and i32 %53, 63
  %55 = zext nneg i32 %54 to i64
  %56 = getelementptr inbounds nuw [65 x i8], ptr @data_bin2ascii, i64 0, i64 %55
  %57 = load i8, ptr %56, align 1, !tbaa !14
  %58 = getelementptr inbounds nuw i8, ptr %.03238, i64 2
  store i8 %57, ptr %52, align 1, !tbaa !14
  %59 = lshr i32 %46, 6
  %60 = and i32 %59, 63
  %61 = zext nneg i32 %60 to i64
  %62 = getelementptr inbounds nuw [65 x i8], ptr @data_bin2ascii, i64 0, i64 %61
  %63 = load i8, ptr %62, align 1, !tbaa !14
  %64 = getelementptr inbounds nuw i8, ptr %.03238, i64 3
  store i8 %63, ptr %58, align 1, !tbaa !14
  %65 = and i32 %45, 63
  %66 = zext nneg i32 %65 to i64
  %67 = getelementptr inbounds nuw [65 x i8], ptr @data_bin2ascii, i64 0, i64 %66
  %68 = load i8, ptr %67, align 1, !tbaa !14
  store i8 %68, ptr %64, align 1, !tbaa !14
  %69 = add i64 %.03039, -3
  %.133 = getelementptr inbounds nuw i8, ptr %.03238, i64 4
  %70 = add i64 %.040, 4
  %71 = getelementptr inbounds nuw i8, ptr %.03436, i64 3
  %.not = icmp eq i64 %69, 0
  br i1 %.not, label %._crit_edge, label %.lr.ph, !llvm.loop !15

._crit_edge:                                      ; preds = %38, %.thread, %3
  %.032.lcssa = phi ptr [ %0, %3 ], [ %.13343, %.thread ], [ %.133, %38 ]
  %.0.lcssa = phi i64 [ 0, %3 ], [ %37, %.thread ], [ %70, %38 ]
  store i8 0, ptr %.032.lcssa, align 1, !tbaa !14
  ret i64 %.0.lcssa
}